target datalayout = "e-m:e-p270:32:32-p271:32:32-p272:64:64-i64:64-i128:128-f80:128-n8:16:32:64-S128"
target triple = "x86_64-pc-linux-gnu"

%struct.atomic_zu_t = type { i64 }
%struct.atomic_b_t = type { i8 }
%struct.nstime_t = type { i64 }
%struct.pac_s = type { %struct.pai_s, %struct.ecache_s, %struct.ecache_s, %struct.ecache_s, ptr, ptr, ptr, %struct.exp_grow_s, %struct.malloc_mutex_s, %struct.san_bump_alloc_s, %struct.atomic_zu_t, %struct.decay_s, %struct.decay_s, ptr, ptr, %struct.atomic_zu_t }
%struct.pai_s = type { ptr, ptr, ptr, ptr, ptr, ptr, ptr }
%struct.ecache_s = type { %struct.malloc_mutex_s, %struct.eset_s, %struct.eset_s, i32, i32, i8 }
%struct.eset_s = type { [4 x i64], [200 x %struct.eset_bin_s], [200 x %struct.eset_bin_stats_s], %struct.edata_list_inactive_t, %struct.atomic_zu_t, i32 }
%struct.eset_bin_s = type { %struct.edata_heap_t, %struct.edata_cmp_summary_s }
%struct.edata_heap_t = type { %struct.ph_s }
%struct.ph_s = type { ptr, i64 }
%struct.edata_cmp_summary_s = type { i64, i64 }
%struct.eset_bin_stats_s = type { %struct.atomic_zu_t, %struct.atomic_zu_t }
%struct.edata_list_inactive_t = type { %struct.anon.1 }
%struct.anon.1 = type { ptr }
%struct.exp_grow_s = type { i32, i32 }
%struct.malloc_mutex_s = type { %union.anon }
%union.anon = type { %struct.anon }
%struct.anon = type { %struct.mutex_prof_data_t, %struct.atomic_b_t, %union.pthread_mutex_t }
%struct.mutex_prof_data_t = type { %struct.nstime_t, %struct.nstime_t, i64, i64, i32, %struct.atomic_u32_t, i64, ptr, i64 }
%struct.atomic_u32_t = type { i32 }
%union.pthread_mutex_t = type { %struct.__pthread_mutex_s }
%struct.__pthread_mutex_s = type { i32, i32, i32, i32, i32, i16, i16, %struct.__pthread_internal_list }
%struct.__pthread_internal_list = type { ptr, ptr }
%struct.san_bump_alloc_s = type { %struct.malloc_mutex_s, ptr }
%struct.decay_s = type { %struct.malloc_mutex_s, i8, %struct.atomic_zd_t, %struct.nstime_t, %struct.nstime_t, i64, %struct.nstime_t, i64, i64, [200 x i64], i64 }
%struct.atomic_zd_t = type { i64 }
%struct.edata_s = type { i64, ptr, %union.anon.4, ptr, i64, %union.anon.5, %union.anon.8 }
%union.anon.4 = type { i64 }
%union.anon.5 = type { %union.anon.7 }
%union.anon.7 = type { %struct.edata_heap_link_t }
%struct.edata_heap_link_t = type { %struct.phn_link_s }
%struct.phn_link_s = type { ptr, ptr, ptr }
%union.anon.8 = type { %struct.slab_data_s }
%struct.slab_data_s = type { [8 x i64] }
%struct.pac_stats_s = type { %struct.pac_decay_stats_s, %struct.pac_decay_stats_s, i64, %struct.atomic_zu_t, %struct.atomic_zu_t }
%struct.pac_decay_stats_s = type { %struct.locked_u64_s, %struct.locked_u64_s, %struct.locked_u64_s }
%struct.locked_u64_s = type { %struct.atomic_u64_t }
%struct.atomic_u64_t = type { i64 }

; Function Attrs: alwaysinline nounwind uwtable
define internal i32 @atomic_enum_to_builtin(i32 noundef %0) #1 {
  %2 = alloca i32, align 4
  %3 = alloca i32, align 4
  store i32 %0, ptr %3, align 4, !tbaa !12
  %4 = load i32, ptr %3, align 4, !tbaa !12
  switch i32 %4, label %10 [
    i32 0, label %5
    i32 1, label %6
    i32 2, label %7
    i32 3, label %8
    i32 4, label %9
  ]

5:                                                ; preds = %1
  store i32 0, ptr %2, align 4
  br label %12

6:                                                ; preds = %1
  store i32 2, ptr %2, align 4
  br label %12

7:                                                ; preds = %1
  store i32 3, ptr %2, align 4
  br label %12

8:                                                ; preds = %1
  store i32 4, ptr %2, align 4
  br label %12

9:                                                ; preds = %1
  store i32 5, ptr %2, align 4
  br label %12

10:                                               ; preds = %1
  br label %11

11:                                               ; preds = %10
  unreachable

12:                                               ; preds = %5, %6, %7, %8, %9
  %13 = load i32, ptr %2, align 4
  ret i32 %13
}

; Function Attrs: alwaysinline nounwind uwtable
define internal i64 @atomic_fetch_add_zu(ptr noundef %0, i64 noundef %1, i32 noundef %2) #1 {
  %4 = alloca ptr, align 8
  %5 = alloca i64, align 8
  %6 = alloca i32, align 4
  %7 = alloca i64, align 8
  %8 = alloca i64, align 8
  store ptr %0, ptr %4, align 8, !tbaa !9
  store i64 %1, ptr %5, align 8, !tbaa !10
  store i32 %2, ptr %6, align 4, !tbaa !12
  %9 = load ptr, ptr %4, align 8, !tbaa !9
  %10 = getelementptr inbounds nuw %struct.atomic_zu_t, ptr %9, i32 0, i32 0
  %11 = load i32, ptr %6, align 4, !tbaa !12
  %12 = call i32 @atomic_enum_to_builtin(i32 noundef %11)
  %13 = load i64, ptr %5, align 8, !tbaa !10
  store i64 %13, ptr %7, align 8, !tbaa !10
  switch i32 %12, label %14 [
    i32 1, label %17
    i32 2, label %17
    i32 3, label %20
    i32 4, label %23
    i32 5, label %26
  ]

14:                                               ; preds = %3
  %15 = load i64, ptr %7, align 8
  %16 = atomicrmw add ptr %10, i64 %15 monotonic, align 8
  store i64 %16, ptr %8, align 8
  br label %29

17:                                               ; preds = %3, %3
  %18 = load i64, ptr %7, align 8
  %19 = atomicrmw add ptr %10, i64 %18 acquire, align 8
  store i64 %19, ptr %8, align 8
  br label %29

20:                                               ; preds = %3
  %21 = load i64, ptr %7, align 8
  %22 = atomicrmw add ptr %10, i64 %21 release, align 8
  store i64 %22, ptr %8, align 8
  br label %29

23:                                               ; preds = %3
  %24 = load i64, ptr %7, align 8
  %25 = atomicrmw add ptr %10, i64 %24 acq_rel, align 8
  store i64 %25, ptr %8, align 8
  br label %29

26:                                               ; preds = %3
  %27 = load i64, ptr %7, align 8
  %28 = atomicrmw add ptr %10, i64 %27 seq_cst, align 8
  store i64 %28, ptr %8, align 8
  br label %29

29:                                               ; preds = %26, %23, %20, %17, %14
  %30 = load i64, ptr %8, align 8, !tbaa !10
  ret i64 %30
}

; Function Attrs: inlinehint nounwind uwtable
define internal i64 @edata_size_get(ptr noundef %0) #2 {
  %2 = alloca ptr, align 8
  store ptr %0, ptr %2, align 8, !tbaa !20
  %3 = load ptr, ptr %2, align 8, !tbaa !20
  %4 = getelementptr inbounds nuw %struct.edata_s, ptr %3, i32 0, i32 2
  %5 = load i64, ptr %4, align 8, !tbaa !63
  %6 = and i64 %5, -4096
  ret i64 %6
}

; Function Attrs: nounwind uwtable
define internal void @extents_abandon_vm(ptr noundef %0, ptr noundef %1, ptr noundef %2, ptr noundef %3, ptr noundef %4, i1 noundef zeroext %5) #0 {
  %7 = alloca ptr, align 8
  %8 = alloca ptr, align 8
  %9 = alloca ptr, align 8
  %10 = alloca ptr, align 8
  %11 = alloca ptr, align 8
  %12 = alloca i8, align 1
  %13 = alloca i64, align 8
  store ptr %0, ptr %7, align 8, !tbaa !14
  store ptr %1, ptr %8, align 8, !tbaa !4
  store ptr %2, ptr %9, align 8, !tbaa !16
  store ptr %3, ptr %10, align 8, !tbaa !18
  store ptr %4, ptr %11, align 8, !tbaa !20
  %14 = zext i1 %5 to i8
  store i8 %14, ptr %12, align 1, !tbaa !22
  call void @llvm.lifetime.start.p0(i64 8, ptr %13) #10
  %15 = load ptr, ptr %11, align 8, !tbaa !20
  %16 = call i64 @edata_size_get(ptr noundef %15)
  store i64 %16, ptr %13, align 8, !tbaa !10
  %17 = load ptr, ptr %8, align 8, !tbaa !4
  %18 = getelementptr inbounds nuw %struct.pac_s, ptr %17, i32 0, i32 14
  %19 = load ptr, ptr %18, align 8, !tbaa !67
  %20 = getelementptr inbounds nuw %struct.pac_stats_s, ptr %19, i32 0, i32 4
  %21 = load i64, ptr %13, align 8, !tbaa !10
  %22 = call i64 @atomic_fetch_add_zu(ptr noundef %20, i64 noundef %21, i32 noundef 0)
  %23 = load ptr, ptr %10, align 8, !tbaa !18
  %24 = getelementptr inbounds nuw %struct.ecache_s, ptr %23, i32 0, i32 3
  %25 = load i32, ptr %24, align 8, !tbaa !59
  %26 = icmp eq i32 %25, 1
  br i1 %26, label %27, label %45

27:                                               ; preds = %6
  %28 = load ptr, ptr %7, align 8, !tbaa !14
  %29 = load ptr, ptr %9, align 8, !tbaa !16
  %30 = load ptr, ptr %11, align 8, !tbaa !20
  %31 = load i64, ptr %13, align 8, !tbaa !10
  %32 = load i8, ptr %12, align 1, !tbaa !22, !range !24, !noundef !25
  %33 = trunc i8 %32 to i1
  %34 = call zeroext i1 @extent_purge_lazy_impl(ptr noundef %28, ptr noundef %29, ptr noundef %30, i64 noundef 0, i64 noundef %31, i1 noundef zeroext %33)
  br i1 %34, label %35, label %44

35:                                               ; preds = %27
  %36 = load ptr, ptr %7, align 8, !tbaa !14
  %37 = load ptr, ptr %9, align 8, !tbaa !16
  %38 = load ptr, ptr %11, align 8, !tbaa !20
  %39 = load ptr, ptr %11, align 8, !tbaa !20
  %40 = call i64 @edata_size_get(ptr noundef %39)
  %41 = load i8, ptr %12, align 1, !tbaa !22, !range !24, !noundef !25
  %42 = trunc i8 %41 to i1
  %43 = call zeroext i1 @extent_purge_forced_impl(ptr noundef %36, ptr noundef %37, ptr noundef %38, i64 noundef 0, i64 noundef %40, i1 noundef zeroext %42)
  br label %44

44:                                               ; preds = %35, %27
  br label %45

45:                                               ; preds = %44, %6
  %46 = load ptr, ptr %7, align 8, !tbaa !14
  %47 = load ptr, ptr %8, align 8, !tbaa !4
  %48 = getelementptr inbounds nuw %struct.pac_s, ptr %47, i32 0, i32 6
  %49 = load ptr, ptr %48, align 8, !tbaa !32
  %50 = load ptr, ptr %11, align 8, !tbaa !20
  call void @je_edata_cache_put(ptr noundef %46, ptr noundef %49, ptr noundef %50)
  call void @llvm.lifetime.end.p0(i64 8, ptr %13) #10
  ret void
}